target datalayout = "e-m:e-p270:32:32-p271:32:32-p272:64:64-i64:64-i128:128-f80:128-n8:16:32:64-S128"
target triple = "x86_64-unknown-linux-gnu"

%"class.icu_75::StringMatcher" = type <{ %"class.icu_75::UnicodeFunctor", %"class.icu_75::UnicodeMatcher", %"class.icu_75::UnicodeReplacer", %"class.icu_75::UnicodeString", ptr, i32, i32, i32, [4 x i8] }>
%"class.icu_75::UnicodeFunctor" = type { %"class.icu_75::UObject" }
%"class.icu_75::UObject" = type { ptr }
%"class.icu_75::UnicodeMatcher" = type { ptr }
%"class.icu_75::UnicodeReplacer" = type { ptr }
%"class.icu_75::UnicodeString" = type { %"class.icu_75::Replaceable", %"union.icu_75::UnicodeString::StackBufferOrFields" }
%"class.icu_75::Replaceable" = type { %"class.icu_75::UObject" }
%"union.icu_75::UnicodeString::StackBufferOrFields" = type { %struct.anon.0, [32 x i8] }
%struct.anon.0 = type { i16, i32, i32, ptr }

; Function Attrs: mustprogress nounwind uwtable
define linkonce_odr noundef i32 @_ZNK6icu_7513UnicodeString14getShortLengthEv(ptr noundef nonnull align 8 dereferenceable(64) %this) #0 comdat align 2 {
entry:
  %this.addr = alloca ptr, align 8
  store ptr %this, ptr %this.addr, align 8
  %this1 = load ptr, ptr %this.addr, align 8
  %fUnion = getelementptr inbounds %"class.icu_75::UnicodeString", ptr %this1, i32 0, i32 1
  %fLengthAndFlags = getelementptr inbounds %struct.anon.0, ptr %fUnion, i32 0, i32 0
  %0 = load i16, ptr %fLengthAndFlags, align 8
  %conv = sext i16 %0 to i32
  %shr = ashr i32 %conv, 5
  ret i32 %shr
}

; Function Attrs: mustprogress nounwind uwtable
define linkonce_odr noundef signext i8 @_ZNK6icu_7513UnicodeString14hasShortLengthEv(ptr noundef nonnull align 8 dereferenceable(64) %this) #0 comdat align 2 {
entry:
  %this.addr = alloca ptr, align 8
  store ptr %this, ptr %this.addr, align 8
  %this1 = load ptr, ptr %this.addr, align 8
  %fUnion = getelementptr inbounds %"class.icu_75::UnicodeString", ptr %this1, i32 0, i32 1
  %fLengthAndFlags = getelementptr inbounds %struct.anon.0, ptr %fUnion, i32 0, i32 0
  %0 = load i16, ptr %fLengthAndFlags, align 8
  %conv = sext i16 %0 to i32
  %cmp = icmp sge i32 %conv, 0
  %conv2 = zext i1 %cmp to i8
  ret i8 %conv2
}

; Function Attrs: mustprogress uwtable
define linkonce_odr noundef i32 @_ZNK6icu_7513UnicodeString6lengthEv(ptr noundef nonnull align 8 dereferenceable(64) %this) #1 comdat align 2 {
entry:
  %this.addr = alloca ptr, align 8
  store ptr %this, ptr %this.addr, align 8
  %this1 = load ptr, ptr %this.addr, align 8
  %call = call noundef signext i8 @_ZNK6icu_7513UnicodeString14hasShortLengthEv(ptr noundef nonnull align 8 dereferenceable(64) %this1)
  %tobool = icmp ne i8 %call, 0
  br i1 %tobool, label %cond.true, label %cond.false

cond.true:                                        ; preds = %entry
  %call2 = call noundef i32 @_ZNK6icu_7513UnicodeString14getShortLengthEv(ptr noundef nonnull align 8 dereferenceable(64) %this1)
  br label %cond.end

cond.false:                                       ; preds = %entry
  %fUnion = getelementptr inbounds %"class.icu_75::UnicodeString", ptr %this1, i32 0, i32 1
  %fLength = getelementptr inbounds %struct.anon.0, ptr %fUnion, i32 0, i32 1
  %0 = load i32, ptr %fLength, align 4
  br label %cond.end

cond.end:                                         ; preds = %cond.false, %cond.true
  %cond = phi i32 [ %call2, %cond.true ], [ %0, %cond.false ]
  ret i32 %cond
}

; Function Attrs: mustprogress uwtable
define void @_ZNK6icu_7513StringMatcher13addMatchSetToERNS_10UnicodeSetE(ptr noundef nonnull align 8 dereferenceable(108) %this, ptr noundef nonnull align 8 dereferenceable(200) %toUnionTo) unnamed_addr #1 align 2 {
entry:
  %this.addr = alloca ptr, align 8
  %toUnionTo.addr = alloca ptr, align 8
  %ch = alloca i32, align 4
  %i = alloca i32, align 4
  %matcher = alloca ptr, align 8
  store ptr %this, ptr %this.addr, align 8
  store ptr %toUnionTo, ptr %toUnionTo.addr, align 8
  %this1 = load ptr, ptr %this.addr, align 8
  store i32 0, ptr %i, align 4
  br label %for.cond

for.cond:                                         ; preds = %for.inc, %entry
  %0 = load i32, ptr %i, align 4
  %pattern = getelementptr inbounds %"class.icu_75::StringMatcher", ptr %this1, i32 0, i32 3
  %call = call noundef i32 @_ZNK6icu_7513UnicodeString6lengthEv(ptr noundef nonnull align 8 dereferenceable(64) %pattern)
  %cmp = icmp slt i32 %0, %call
  br i1 %cmp, label %for.body, label %for.end

for.body:                                         ; preds = %for.cond
  %pattern2 = getelementptr inbounds %"class.icu_75::StringMatcher", ptr %this1, i32 0, i32 3
  %1 = load i32, ptr %i, align 4
  %call3 = call noundef i32 @_ZNK6icu_7513UnicodeString8char32AtEi(ptr noundef nonnull align 8 dereferenceable(64) %pattern2, i32 noundef %1)
  store i32 %call3, ptr %ch, align 4
  %data = getelementptr inbounds %"class.icu_75::StringMatcher", ptr %this1, i32 0, i32 4
  %2 = load ptr, ptr %data, align 8
  %3 = load i32, ptr %ch, align 4
  %call4 = call noundef ptr @_ZNK6icu_7523TransliterationRuleData13lookupMatcherEi(ptr noundef nonnull align 8 dereferenceable(1168) %2, i32 noundef %3)
  store ptr %call4, ptr %matcher, align 8
  %4 = load ptr, ptr %matcher, align 8
  %cmp5 = icmp eq ptr %4, null
  br i1 %cmp5, label %if.then, label %if.else

if.then:                                          ; preds = %for.body
  %5 = load ptr, ptr %toUnionTo.addr, align 8
  %6 = load i32, ptr %ch, align 4
  %call6 = call noundef nonnull align 8 dereferenceable(200) ptr @_ZN6icu_7510UnicodeSet3addEi(ptr noundef nonnull align 8 dereferenceable(200) %5, i32 noundef %6)
  br label %if.end

if.else:                                          ; preds = %for.body
  %7 = load ptr, ptr %matcher, align 8
  %8 = load ptr, ptr %toUnionTo.addr, align 8
  %vtable = load ptr, ptr %7, align 8
  %vfn = getelementptr inbounds ptr, ptr %vtable, i64 5
  %9 = load ptr, ptr %vfn, align 8
  call void %9(ptr noundef nonnull align 8 dereferenceable(8) %7, ptr noundef nonnull align 8 dereferenceable(200) %8)
  br label %if.end

if.end:                                           ; preds = %if.else, %if.then
  br label %for.inc

for.inc:                                          ; preds = %if.end
  %10 = load i32, ptr %ch, align 4
  %cmp7 = icmp ule i32 %10, 65535
  %cond = select i1 %cmp7, i32 1, i32 2
  %11 = load i32, ptr %i, align 4
  %add = add nsw i32 %11, %cond
  store i32 %add, ptr %i, align 4
  br label %for.cond, !llvm.loop !8

for.end:                                          ; preds = %for.cond
  ret void
}

; Function Attrs: uwtable
define void @_ZThn8_NK6icu_7513StringMatcher13addMatchSetToERNS_10UnicodeSetE(ptr noundef %this, ptr noundef nonnull align 8 dereferenceable(200) %toUnionTo) unnamed_addr #8 align 2 {
entry:
  %this.addr = alloca ptr, align 8
  %toUnionTo.addr = alloca ptr, align 8
  store ptr %this, ptr %this.addr, align 8
  store ptr %toUnionTo, ptr %toUnionTo.addr, align 8
  %this1 = load ptr, ptr %this.addr, align 8
  %0 = getelementptr inbounds i8, ptr %this1, i64 -8
  %1 = load ptr, ptr %toUnionTo.addr, align 8
  tail call void @_ZNK6icu_7513StringMatcher13addMatchSetToERNS_10UnicodeSetE(ptr noundef nonnull align 8 dereferenceable(108) %0, ptr noundef nonnull align 8 dereferenceable(200) %1)
  ret void
}