; Function Attrs: uwtable
define void @_ZThn8_NK6icu_7513StringMatcher13addMatchSetToERNS_10UnicodeSetE(ptr noundef %this, ptr noundef nonnull align 8 dereferenceable(200) %toUnionTo) unnamed_addr #9 align 2 {
entry:
  %fUnion.i.i.i = getelementptr inbounds i8, ptr %this, i64 24
  %fLength.i.i = getelementptr inbounds i8, ptr %this, i64 28
  %0 = load i16, ptr %fUnion.i.i.i, align 8
  %cmp.i.i7.i = icmp slt i16 %0, 0
  %1 = ashr i16 %0, 5
  %shr.i.i8.i = sext i16 %1 to i32
  %2 = load i32, ptr %fLength.i.i, align 4
  %cond.i9.i = select i1 %cmp.i.i7.i, i32 %2, i32 %shr.i.i8.i
  %cmp10.i = icmp sgt i32 %cond.i9.i, 0
  br i1 %cmp10.i, label %for.body.lr.ph.i, label %_ZNK6icu_7513StringMatcher13addMatchSetToERNS_10UnicodeSetE.exit

for.body.lr.ph.i:                                 ; preds = %entry
  %pattern.i = getelementptr inbounds i8, ptr %this, i64 16
  %data.i = getelementptr inbounds i8, ptr %this, i64 80
  br label %for.body.i

for.body.i:                                       ; preds = %for.inc.i, %for.body.lr.ph.i
  %i.011.i = phi i32 [ 0, %for.body.lr.ph.i ], [ %add.i, %for.inc.i ]
  %call3.i = tail call noundef i32 @_ZNK6icu_7513UnicodeString8char32AtEi(ptr noundef nonnull align 8 dereferenceable(64) %pattern.i, i32 noundef %i.011.i)
  %3 = load ptr, ptr %data.i, align 8
  %call4.i = tail call noundef ptr @_ZNK6icu_7523TransliterationRuleData13lookupMatcherEi(ptr noundef nonnull align 8 dereferenceable(1168) %3, i32 noundef %call3.i)
  %cmp5.i = icmp eq ptr %call4.i, null
  br i1 %cmp5.i, label %if.then.i, label %if.else.i

if.then.i:                                        ; preds = %for.body.i
  %call6.i = tail call noundef nonnull align 8 dereferenceable(200) ptr @_ZN6icu_7510UnicodeSet3addEi(ptr noundef nonnull align 8 dereferenceable(200) %toUnionTo, i32 noundef %call3.i)
  br label %for.inc.i

if.else.i:                                        ; preds = %for.body.i
  %vtable.i = load ptr, ptr %call4.i, align 8
  %vfn.i = getelementptr inbounds i8, ptr %vtable.i, i64 40
  %4 = load ptr, ptr %vfn.i, align 8
  tail call void %4(ptr noundef nonnull align 8 dereferenceable(8) %call4.i, ptr noundef nonnull align 8 dereferenceable(200) %toUnionTo)
  br label %for.inc.i

for.inc.i:                                        ; preds = %if.else.i, %if.then.i
  %cmp7.i = icmp ult i32 %call3.i, 65536
  %cond.i = select i1 %cmp7.i, i32 1, i32 2
  %add.i = add nuw nsw i32 %cond.i, %i.011.i
  %5 = load i16, ptr %fUnion.i.i.i, align 8
  %cmp.i.i.i = icmp slt i16 %5, 0
  %6 = ashr i16 %5, 5
  %shr.i.i.i = sext i16 %6 to i32
  %7 = load i32, ptr %fLength.i.i, align 4
  %cond.i.i = select i1 %cmp.i.i.i, i32 %7, i32 %shr.i.i.i
  %cmp.i = icmp slt i32 %add.i, %cond.i.i
  br i1 %cmp.i, label %for.body.i, label %_ZNK6icu_7513StringMatcher13addMatchSetToERNS_10UnicodeSetE.exit, !llvm.loop !8

_ZNK6icu_7513StringMatcher13addMatchSetToERNS_10UnicodeSetE.exit: ; preds = %for.inc.i, %entry
  ret void
}